target datalayout = "e-m:e-p270:32:32-p271:32:32-p272:64:64-i64:64-i128:128-f80:128-n8:16:32:64-S128"
target triple = "x86_64-unknown-linux-gnu"

%class.b2ChainShape = type <{ %class.b2Shape, ptr, i32, %struct.b2Vec2, %struct.b2Vec2, [4 x i8] }>
%class.b2Shape = type { ptr, i32, float }
%struct.b2Vec2 = type { float, float }
%class.b2EdgeShape = type <{ %class.b2Shape, %struct.b2Vec2, %struct.b2Vec2, %struct.b2Vec2, %struct.b2Vec2, i8, [7 x i8] }>

@_ZTV11b2EdgeShape = external unnamed_addr constant { [10 x ptr] }, align 8

; Function Attrs: mustprogress nounwind uwtable
define linkonce_odr hidden void @_ZN7b2ShapeD2Ev(ptr noundef nonnull align 8 dereferenceable(16) %this) unnamed_addr #0 comdat align 2 {
entry:
  %this.addr = alloca ptr, align 8
  store ptr %this, ptr %this.addr, align 8
  ret void
}

; Function Attrs: mustprogress nounwind uwtable
define linkonce_odr hidden void @_ZN7b2ShapeC2Ev(ptr noundef nonnull align 8 dereferenceable(16) %this) unnamed_addr #0 comdat align 2 {
entry:
  %this.addr = alloca ptr, align 8
  store ptr %this, ptr %this.addr, align 8
  %this1 = load ptr, ptr %this.addr, align 8
  store ptr getelementptr inbounds ({ [10 x ptr] }, ptr @_ZTV7b2Shape, i32 0, i32 0, i32 2), ptr %this1, align 8
  ret void
}

; Function Attrs: mustprogress nounwind uwtable
define linkonce_odr hidden void @_ZN11b2EdgeShapeD2Ev(ptr noundef nonnull align 8 dereferenceable(49) %this) unnamed_addr #0 comdat align 2 {
entry:
  %this.addr = alloca ptr, align 8
  store ptr %this, ptr %this.addr, align 8
  %this1 = load ptr, ptr %this.addr, align 8
  call void @_ZN7b2ShapeD2Ev(ptr noundef nonnull align 8 dereferenceable(16) %this1) #9
  ret void
}

; Function Attrs: mustprogress nounwind uwtable
define linkonce_odr hidden void @_ZN11b2EdgeShapeC2Ev(ptr noundef nonnull align 8 dereferenceable(49) %this) unnamed_addr #0 comdat align 2 {
entry:
  %this.addr = alloca ptr, align 8
  store ptr %this, ptr %this.addr, align 8
  %this1 = load ptr, ptr %this.addr, align 8
  call void @_ZN7b2ShapeC2Ev(ptr noundef nonnull align 8 dereferenceable(16) %this1) #9
  store ptr getelementptr inbounds ({ [10 x ptr] }, ptr @_ZTV11b2EdgeShape, i32 0, i32 0, i32 2), ptr %this1, align 8
  %m_type = getelementptr inbounds %class.b2Shape, ptr %this1, i32 0, i32 1
  store i32 1, ptr %m_type, align 8
  %m_radius = getelementptr inbounds %class.b2Shape, ptr %this1, i32 0, i32 2
  store float 0x3F847AE140000000, ptr %m_radius, align 4
  %m_vertex02 = getelementptr inbounds %class.b2EdgeShape, ptr %this1, i32 0, i32 3
  %x = getelementptr inbounds %struct.b2Vec2, ptr %m_vertex02, i32 0, i32 0
  store float 0.000000e+00, ptr %x, align 8
  %m_vertex03 = getelementptr inbounds %class.b2EdgeShape, ptr %this1, i32 0, i32 3
  %y = getelementptr inbounds %struct.b2Vec2, ptr %m_vertex03, i32 0, i32 1
  store float 0.000000e+00, ptr %y, align 4
  %m_vertex34 = getelementptr inbounds %class.b2EdgeShape, ptr %this1, i32 0, i32 4
  %x5 = getelementptr inbounds %struct.b2Vec2, ptr %m_vertex34, i32 0, i32 0
  store float 0.000000e+00, ptr %x5, align 8
  %m_vertex36 = getelementptr inbounds %class.b2EdgeShape, ptr %this1, i32 0, i32 4
  %y7 = getelementptr inbounds %struct.b2Vec2, ptr %m_vertex36, i32 0, i32 1
  store float 0.000000e+00, ptr %y7, align 4
  %m_oneSided = getelementptr inbounds %class.b2EdgeShape, ptr %this1, i32 0, i32 5
  store i8 0, ptr %m_oneSided, align 8
  ret void
}

; Function Attrs: mustprogress uwtable
define noundef zeroext i1 @_ZNK12b2ChainShape7RayCastEP15b2RayCastOutputRK14b2RayCastInputRK11b2Transformi(ptr noundef nonnull align 8 dereferenceable(44) %this, ptr noundef %output, ptr noundef nonnull align 4 dereferenceable(20) %input, ptr noundef nonnull align 4 dereferenceable(16) %xf, i32 noundef %childIndex) unnamed_addr #1 align 2 personality ptr @__gxx_personality_v0 {
entry:
  %this.addr = alloca ptr, align 8
  %output.addr = alloca ptr, align 8
  %input.addr = alloca ptr, align 8
  %xf.addr = alloca ptr, align 8
  %childIndex.addr = alloca i32, align 4
  %edgeShape = alloca %class.b2EdgeShape, align 8
  %i1 = alloca i32, align 4
  %i2 = alloca i32, align 4
  %exn.slot = alloca ptr, align 8
  %ehselector.slot = alloca i32, align 4
  store ptr %this, ptr %this.addr, align 8
  store ptr %output, ptr %output.addr, align 8
  store ptr %input, ptr %input.addr, align 8
  store ptr %xf, ptr %xf.addr, align 8
  store i32 %childIndex, ptr %childIndex.addr, align 4
  %this1 = load ptr, ptr %this.addr, align 8
  call void @_ZN11b2EdgeShapeC2Ev(ptr noundef nonnull align 8 dereferenceable(49) %edgeShape)
  %0 = load i32, ptr %childIndex.addr, align 4
  store i32 %0, ptr %i1, align 4
  %1 = load i32, ptr %childIndex.addr, align 4
  %add = add nsw i32 %1, 1
  store i32 %add, ptr %i2, align 4
  %2 = load i32, ptr %i2, align 4
  %m_count = getelementptr inbounds %class.b2ChainShape, ptr %this1, i32 0, i32 2
  %3 = load i32, ptr %m_count, align 8
  %cmp = icmp eq i32 %2, %3
  br i1 %cmp, label %if.then, label %if.end

if.then:                                          ; preds = %entry
  store i32 0, ptr %i2, align 4
  br label %if.end

if.end:                                           ; preds = %if.then, %entry
  %m_vertices = getelementptr inbounds %class.b2ChainShape, ptr %this1, i32 0, i32 1
  %4 = load ptr, ptr %m_vertices, align 8
  %5 = load i32, ptr %i1, align 4
  %idxprom = sext i32 %5 to i64
  %arrayidx = getelementptr inbounds %struct.b2Vec2, ptr %4, i64 %idxprom
  %m_vertex1 = getelementptr inbounds %class.b2EdgeShape, ptr %edgeShape, i32 0, i32 1
  call void @llvm.memcpy.p0.p0.i64(ptr align 8 %m_vertex1, ptr align 4 %arrayidx, i64 8, i1 false)
  %m_vertices2 = getelementptr inbounds %class.b2ChainShape, ptr %this1, i32 0, i32 1
  %6 = load ptr, ptr %m_vertices2, align 8
  %7 = load i32, ptr %i2, align 4
  %idxprom3 = sext i32 %7 to i64
  %arrayidx4 = getelementptr inbounds %struct.b2Vec2, ptr %6, i64 %idxprom3
  %m_vertex2 = getelementptr inbounds %class.b2EdgeShape, ptr %edgeShape, i32 0, i32 2
  call void @llvm.memcpy.p0.p0.i64(ptr align 8 %m_vertex2, ptr align 4 %arrayidx4, i64 8, i1 false)
  %8 = load ptr, ptr %output.addr, align 8
  %9 = load ptr, ptr %input.addr, align 8
  %10 = load ptr, ptr %xf.addr, align 8
  %call = invoke noundef zeroext i1 @_ZNK11b2EdgeShape7RayCastEP15b2RayCastOutputRK14b2RayCastInputRK11b2Transformi(ptr noundef nonnull align 8 dereferenceable(49) %edgeShape, ptr noundef %8, ptr noundef nonnull align 4 dereferenceable(20) %9, ptr noundef nonnull align 4 dereferenceable(16) %10, i32 noundef 0)
          to label %invoke.cont unwind label %lpad

invoke.cont:                                      ; preds = %if.end
  call void @_ZN11b2EdgeShapeD2Ev(ptr noundef nonnull align 8 dereferenceable(49) %edgeShape) #9
  ret i1 %call

lpad:                                             ; preds = %if.end
  %11 = landingpad { ptr, i32 }
          cleanup
  %12 = extractvalue { ptr, i32 } %11, 0
  store ptr %12, ptr %exn.slot, align 8
  %13 = extractvalue { ptr, i32 } %11, 1
  store i32 %13, ptr %ehselector.slot, align 4
  call void @_ZN11b2EdgeShapeD2Ev(ptr noundef nonnull align 8 dereferenceable(49) %edgeShape) #9
  br label %eh.resume

eh.resume:                                        ; preds = %lpad
  %exn = load ptr, ptr %exn.slot, align 8
  %sel = load i32, ptr %ehselector.slot, align 4
  %lpad.val = insertvalue { ptr, i32 } poison, ptr %exn, 0
  %lpad.val5 = insertvalue { ptr, i32 } %lpad.val, i32 %sel, 1
  resume { ptr, i32 } %lpad.val5
}