; Function Attrs: mustprogress uwtable
define noundef zeroext i1 @_ZNK12b2ChainShape7RayCastEP15b2RayCastOutputRK14b2RayCastInputRK11b2Transformi(ptr nocapture noundef nonnull readonly align 8 dereferenceable(44) %this, ptr noundef %output, ptr noundef nonnull align 4 dereferenceable(20) %input, ptr noundef nonnull align 4 dereferenceable(16) %xf, i32 noundef %childIndex) unnamed_addr #1 align 2 personality ptr @__gxx_personality_v0 {
entry:
  %edgeShape = alloca %class.b2EdgeShape, align 8
  store ptr getelementptr inbounds ({ [10 x ptr] }, ptr @_ZTV11b2EdgeShape, i64 0, i32 0, i64 2), ptr %edgeShape, align 8
  %m_type.i = getelementptr inbounds i8, ptr %edgeShape, i64 8
  store i32 1, ptr %m_type.i, align 8
  %m_radius.i = getelementptr inbounds i8, ptr %edgeShape, i64 12
  store float 0x3F847AE140000000, ptr %m_radius.i, align 4
  %m_vertex02.i = getelementptr inbounds i8, ptr %edgeShape, i64 32
  call void @llvm.memset.p0.i64(ptr noundef nonnull align 8 dereferenceable(17) %m_vertex02.i, i8 0, i64 17, i1 false)
  %add = add nsw i32 %childIndex, 1
  %m_count = getelementptr inbounds i8, ptr %this, i64 24
  %0 = load i32, ptr %m_count, align 8
  %cmp = icmp eq i32 %add, %0
  %spec.store.select = select i1 %cmp, i32 0, i32 %add
  %m_vertices = getelementptr inbounds i8, ptr %this, i64 16
  %1 = load ptr, ptr %m_vertices, align 8
  %idxprom = sext i32 %childIndex to i64
  %arrayidx = getelementptr inbounds %struct.b2Vec2, ptr %1, i64 %idxprom
  %m_vertex1 = getelementptr inbounds i8, ptr %edgeShape, i64 16
  %2 = load i64, ptr %arrayidx, align 4
  store i64 %2, ptr %m_vertex1, align 8
  %idxprom3 = sext i32 %spec.store.select to i64
  %arrayidx4 = getelementptr inbounds %struct.b2Vec2, ptr %1, i64 %idxprom3
  %m_vertex2 = getelementptr inbounds i8, ptr %edgeShape, i64 24
  %3 = load i64, ptr %arrayidx4, align 4
  store i64 %3, ptr %m_vertex2, align 8
  %call = call noundef zeroext i1 @_ZNK11b2EdgeShape7RayCastEP15b2RayCastOutputRK14b2RayCastInputRK11b2Transformi(ptr noundef nonnull align 8 dereferenceable(49) %edgeShape, ptr noundef %output, ptr noundef nonnull align 4 dereferenceable(20) %input, ptr noundef nonnull align 4 dereferenceable(16) %xf, i32 noundef 0)
  ret i1 %call
}